target datalayout = "e-m:e-p270:32:32-p271:32:32-p272:64:64-i64:64-i128:128-f80:128-n8:16:32:64-S128"
target triple = "x86_64-pc-linux-gnu"

%struct._php_random_status_state_mt19937 = type { i32, i32, [624 x i32] }

; Function Attrs: inlinehint nounwind uwtable
define internal void @mt19937_reload(ptr noundef %0) #0 {
  %2 = alloca ptr, align 8
  %3 = alloca ptr, align 8
  %4 = alloca i32, align 4
  %5 = alloca i32, align 4
  %6 = alloca i32, align 4
  %7 = alloca i32, align 4
  store ptr %0, ptr %2, align 8, !tbaa !4
  call void @llvm.lifetime.start.p0(i64 8, ptr %3) #10
  %8 = load ptr, ptr %2, align 8, !tbaa !4
  %9 = getelementptr inbounds nuw %struct._php_random_status_state_mt19937, ptr %8, i32 0, i32 2
  %10 = getelementptr inbounds [624 x i32], ptr %9, i64 0, i64 0
  store ptr %10, ptr %3, align 8, !tbaa !13
  %11 = load ptr, ptr %2, align 8, !tbaa !4
  %12 = getelementptr inbounds nuw %struct._php_random_status_state_mt19937, ptr %11, i32 0, i32 1
  %13 = load i32, ptr %12, align 4, !tbaa !15
  %14 = icmp eq i32 %13, 0
  br i1 %14, label %15, label %104

15:                                               ; preds = %1
  call void @llvm.lifetime.start.p0(i64 4, ptr %4) #10
  store i32 227, ptr %4, align 4, !tbaa !9
  br label %16

16:                                               ; preds = %44, %15
  %17 = load i32, ptr %4, align 4, !tbaa !9
  %18 = add i32 %17, -1
  store i32 %18, ptr %4, align 4, !tbaa !9
  %19 = icmp ne i32 %17, 0
  br i1 %19, label %21, label %20

20:                                               ; preds = %16
  call void @llvm.lifetime.end.p0(i64 4, ptr %4) #10
  br label %47

21:                                               ; preds = %16
  %22 = load ptr, ptr %3, align 8, !tbaa !13
  %23 = getelementptr inbounds i32, ptr %22, i64 397
  %24 = load i32, ptr %23, align 4, !tbaa !9
  %25 = load ptr, ptr %3, align 8, !tbaa !13
  %26 = getelementptr inbounds i32, ptr %25, i64 0
  %27 = load i32, ptr %26, align 4, !tbaa !9
  %28 = and i32 %27, -2147483648
  %29 = load ptr, ptr %3, align 8, !tbaa !13
  %30 = getelementptr inbounds i32, ptr %29, i64 1
  %31 = load i32, ptr %30, align 4, !tbaa !9
  %32 = and i32 %31, 2147483647
  %33 = or i32 %28, %32
  %34 = lshr i32 %33, 1
  %35 = xor i32 %24, %34
  %36 = load ptr, ptr %3, align 8, !tbaa !13
  %37 = getelementptr inbounds i32, ptr %36, i64 1
  %38 = load i32, ptr %37, align 4, !tbaa !9
  %39 = and i32 %38, 1
  %40 = sub nsw i32 0, %39
  %41 = and i32 %40, -1727483681
  %42 = xor i32 %35, %41
  %43 = load ptr, ptr %3, align 8, !tbaa !13
  store i32 %42, ptr %43, align 4, !tbaa !9
  br label %44

44:                                               ; preds = %21
  %45 = load ptr, ptr %3, align 8, !tbaa !13
  %46 = getelementptr inbounds nuw i32, ptr %45, i32 1
  store ptr %46, ptr %3, align 8, !tbaa !13
  br label %16

47:                                               ; preds = %20
  call void @llvm.lifetime.start.p0(i64 4, ptr %5) #10
  store i32 397, ptr %5, align 4, !tbaa !9
  br label %48

48:                                               ; preds = %76, %47
  %49 = load i32, ptr %5, align 4, !tbaa !9
  %50 = add i32 %49, -1
  store i32 %50, ptr %5, align 4, !tbaa !9
  %51 = icmp ne i32 %50, 0
  br i1 %51, label %53, label %52

52:                                               ; preds = %48
  call void @llvm.lifetime.end.p0(i64 4, ptr %5) #10
  br label %79

53:                                               ; preds = %48
  %54 = load ptr, ptr %3, align 8, !tbaa !13
  %55 = getelementptr inbounds i32, ptr %54, i64 -227
  %56 = load i32, ptr %55, align 4, !tbaa !9
  %57 = load ptr, ptr %3, align 8, !tbaa !13
  %58 = getelementptr inbounds i32, ptr %57, i64 0
  %59 = load i32, ptr %58, align 4, !tbaa !9
  %60 = and i32 %59, -2147483648
  %61 = load ptr, ptr %3, align 8, !tbaa !13
  %62 = getelementptr inbounds i32, ptr %61, i64 1
  %63 = load i32, ptr %62, align 4, !tbaa !9
  %64 = and i32 %63, 2147483647
  %65 = or i32 %60, %64
  %66 = lshr i32 %65, 1
  %67 = xor i32 %56, %66
  %68 = load ptr, ptr %3, align 8, !tbaa !13
  %69 = getelementptr inbounds i32, ptr %68, i64 1
  %70 = load i32, ptr %69, align 4, !tbaa !9
  %71 = and i32 %70, 1
  %72 = sub nsw i32 0, %71
  %73 = and i32 %72, -1727483681
  %74 = xor i32 %67, %73
  %75 = load ptr, ptr %3, align 8, !tbaa !13
  store i32 %74, ptr %75, align 4, !tbaa !9
  br label %76

76:                                               ; preds = %53
  %77 = load ptr, ptr %3, align 8, !tbaa !13
  %78 = getelementptr inbounds nuw i32, ptr %77, i32 1
  store ptr %78, ptr %3, align 8, !tbaa !13
  br label %48

79:                                               ; preds = %52
  %80 = load ptr, ptr %3, align 8, !tbaa !13
  %81 = getelementptr inbounds i32, ptr %80, i64 -227
  %82 = load i32, ptr %81, align 4, !tbaa !9
  %83 = load ptr, ptr %3, align 8, !tbaa !13
  %84 = getelementptr inbounds i32, ptr %83, i64 0
  %85 = load i32, ptr %84, align 4, !tbaa !9
  %86 = and i32 %85, -2147483648
  %87 = load ptr, ptr %2, align 8, !tbaa !4
  %88 = getelementptr inbounds nuw %struct._php_random_status_state_mt19937, ptr %87, i32 0, i32 2
  %89 = getelementptr inbounds [624 x i32], ptr %88, i64 0, i64 0
  %90 = load i32, ptr %89, align 4, !tbaa !9
  %91 = and i32 %90, 2147483647
  %92 = or i32 %86, %91
  %93 = lshr i32 %92, 1
  %94 = xor i32 %82, %93
  %95 = load ptr, ptr %2, align 8, !tbaa !4
  %96 = getelementptr inbounds nuw %struct._php_random_status_state_mt19937, ptr %95, i32 0, i32 2
  %97 = getelementptr inbounds [624 x i32], ptr %96, i64 0, i64 0
  %98 = load i32, ptr %97, align 4, !tbaa !9
  %99 = and i32 %98, 1
  %100 = sub nsw i32 0, %99
  %101 = and i32 %100, -1727483681
  %102 = xor i32 %94, %101
  %103 = load ptr, ptr %3, align 8, !tbaa !13
  store i32 %102, ptr %103, align 4, !tbaa !9
  br label %192

104:                                              ; preds = %1
  call void @llvm.lifetime.start.p0(i64 4, ptr %6) #10
  store i32 227, ptr %6, align 4, !tbaa !9
  br label %105

105:                                              ; preds = %133, %104
  %106 = load i32, ptr %6, align 4, !tbaa !9
  %107 = add i32 %106, -1
  store i32 %107, ptr %6, align 4, !tbaa !9
  %108 = icmp ne i32 %106, 0
  br i1 %108, label %110, label %109

109:                                              ; preds = %105
  call void @llvm.lifetime.end.p0(i64 4, ptr %6) #10
  br label %136

110:                                              ; preds = %105
  %111 = load ptr, ptr %3, align 8, !tbaa !13
  %112 = getelementptr inbounds i32, ptr %111, i64 397
  %113 = load i32, ptr %112, align 4, !tbaa !9
  %114 = load ptr, ptr %3, align 8, !tbaa !13
  %115 = getelementptr inbounds i32, ptr %114, i64 0
  %116 = load i32, ptr %115, align 4, !tbaa !9
  %117 = and i32 %116, -2147483648
  %118 = load ptr, ptr %3, align 8, !tbaa !13
  %119 = getelementptr inbounds i32, ptr %118, i64 1
  %120 = load i32, ptr %119, align 4, !tbaa !9
  %121 = and i32 %120, 2147483647
  %122 = or i32 %117, %121
  %123 = lshr i32 %122, 1
  %124 = xor i32 %113, %123
  %125 = load ptr, ptr %3, align 8, !tbaa !13
  %126 = getelementptr inbounds i32, ptr %125, i64 0
  %127 = load i32, ptr %126, align 4, !tbaa !9
  %128 = and i32 %127, 1
  %129 = sub nsw i32 0, %128
  %130 = and i32 %129, -1727483681
  %131 = xor i32 %124, %130
  %132 = load ptr, ptr %3, align 8, !tbaa !13
  store i32 %131, ptr %132, align 4, !tbaa !9
  br label %133

133:                                              ; preds = %110
  %134 = load ptr, ptr %3, align 8, !tbaa !13
  %135 = getelementptr inbounds nuw i32, ptr %134, i32 1
  store ptr %135, ptr %3, align 8, !tbaa !13
  br label %105

136:                                              ; preds = %109
  call void @llvm.lifetime.start.p0(i64 4, ptr %7) #10
  store i32 397, ptr %7, align 4, !tbaa !9
  br label %137

137:                                              ; preds = %165, %136
  %138 = load i32, ptr %7, align 4, !tbaa !9
  %139 = add i32 %138, -1
  store i32 %139, ptr %7, align 4, !tbaa !9
  %140 = icmp ne i32 %139, 0
  br i1 %140, label %142, label %141

141:                                              ; preds = %137
  call void @llvm.lifetime.end.p0(i64 4, ptr %7) #10
  br label %168

142:                                              ; preds = %137
  %143 = load ptr, ptr %3, align 8, !tbaa !13
  %144 = getelementptr inbounds i32, ptr %143, i64 -227
  %145 = load i32, ptr %144, align 4, !tbaa !9
  %146 = load ptr, ptr %3, align 8, !tbaa !13
  %147 = getelementptr inbounds i32, ptr %146, i64 0
  %148 = load i32, ptr %147, align 4, !tbaa !9
  %149 = and i32 %148, -2147483648
  %150 = load ptr, ptr %3, align 8, !tbaa !13
  %151 = getelementptr inbounds i32, ptr %150, i64 1
  %152 = load i32, ptr %151, align 4, !tbaa !9
  %153 = and i32 %152, 2147483647
  %154 = or i32 %149, %153
  %155 = lshr i32 %154, 1
  %156 = xor i32 %145, %155
  %157 = load ptr, ptr %3, align 8, !tbaa !13
  %158 = getelementptr inbounds i32, ptr %157, i64 0
  %159 = load i32, ptr %158, align 4, !tbaa !9
  %160 = and i32 %159, 1
  %161 = sub nsw i32 0, %160
  %162 = and i32 %161, -1727483681
  %163 = xor i32 %156, %162
  %164 = load ptr, ptr %3, align 8, !tbaa !13
  store i32 %163, ptr %164, align 4, !tbaa !9
  br label %165

165:                                              ; preds = %142
  %166 = load ptr, ptr %3, align 8, !tbaa !13
  %167 = getelementptr inbounds nuw i32, ptr %166, i32 1
  store ptr %167, ptr %3, align 8, !tbaa !13
  br label %137

168:                                              ; preds = %141
  %169 = load ptr, ptr %3, align 8, !tbaa !13
  %170 = getelementptr inbounds i32, ptr %169, i64 -227
  %171 = load i32, ptr %170, align 4, !tbaa !9
  %172 = load ptr, ptr %3, align 8, !tbaa !13
  %173 = getelementptr inbounds i32, ptr %172, i64 0
  %174 = load i32, ptr %173, align 4, !tbaa !9
  %175 = and i32 %174, -2147483648
  %176 = load ptr, ptr %2, align 8, !tbaa !4
  %177 = getelementptr inbounds nuw %struct._php_random_status_state_mt19937, ptr %176, i32 0, i32 2
  %178 = getelementptr inbounds [624 x i32], ptr %177, i64 0, i64 0
  %179 = load i32, ptr %178, align 4, !tbaa !9
  %180 = and i32 %179, 2147483647
  %181 = or i32 %175, %180
  %182 = lshr i32 %181, 1
  %183 = xor i32 %171, %182
  %184 = load ptr, ptr %3, align 8, !tbaa !13
  %185 = getelementptr inbounds i32, ptr %184, i64 0
  %186 = load i32, ptr %185, align 4, !tbaa !9
  %187 = and i32 %186, 1
  %188 = sub nsw i32 0, %187
  %189 = and i32 %188, -1727483681
  %190 = xor i32 %183, %189
  %191 = load ptr, ptr %3, align 8, !tbaa !13
  store i32 %190, ptr %191, align 4, !tbaa !9
  br label %192

192:                                              ; preds = %168, %79
  %193 = load ptr, ptr %2, align 8, !tbaa !4
  %194 = getelementptr inbounds nuw %struct._php_random_status_state_mt19937, ptr %193, i32 0, i32 0
  store i32 0, ptr %194, align 4, !tbaa !11
  call void @llvm.lifetime.end.p0(i64 8, ptr %3) #10
  ret void
}