; Function Attrs: inlinehint nofree norecurse nosync nounwind memory(argmem: readwrite) uwtable
define internal fastcc void @mt19937_reload(ptr noundef captures(none) %0) unnamed_addr #0 {
  %2 = getelementptr inbounds nuw i8, ptr %0, i64 8
  %3 = getelementptr inbounds nuw i8, ptr %0, i64 4
  %4 = load i32, ptr %3, align 4, !tbaa !10
  %5 = icmp eq i32 %4, 0
  %.pre61 = load i32, ptr %2, align 4, !tbaa !4
  br i1 %5, label %.preheader49, label %.preheader51

.preheader49:                                     ; preds = %1, %.preheader49
  %6 = phi i32 [ %12, %.preheader49 ], [ %.pre61, %1 ]
  %.04256 = phi i32 [ %7, %.preheader49 ], [ 227, %1 ]
  %.04355 = phi ptr [ %11, %.preheader49 ], [ %2, %1 ]
  %7 = add nsw i32 %.04256, -1
  %8 = getelementptr inbounds nuw i8, ptr %.04355, i64 1588
  %9 = load i32, ptr %8, align 4, !tbaa !4
  %10 = and i32 %6, -2147483648
  %11 = getelementptr inbounds nuw i8, ptr %.04355, i64 4
  %12 = load i32, ptr %11, align 4, !tbaa !4
  %13 = and i32 %12, 2147483646
  %14 = or disjoint i32 %13, %10
  %15 = lshr exact i32 %14, 1
  %16 = xor i32 %15, %9
  %17 = and i32 %12, 1
  %18 = icmp eq i32 %17, 0
  %19 = select i1 %18, i32 0, i32 -1727483681
  %20 = xor i32 %16, %19
  store i32 %20, ptr %.04355, align 4, !tbaa !4
  %.not47 = icmp eq i32 %7, 0
  br i1 %.not47, label %.preheader, label %.preheader49

21:                                               ; preds = %.preheader
  %22 = getelementptr inbounds i8, ptr %.157, i64 -904
  %23 = load i32, ptr %22, align 4, !tbaa !4
  %24 = and i32 %40, -2147483648
  %25 = load i32, ptr %2, align 4, !tbaa !4
  %26 = and i32 %25, 2147483646
  %27 = or disjoint i32 %26, %24
  %28 = lshr exact i32 %27, 1
  %29 = xor i32 %28, %23
  %30 = and i32 %25, 1
  %31 = icmp eq i32 %30, 0
  %32 = select i1 %31, i32 0, i32 -1727483681
  %33 = xor i32 %29, %32
  store i32 %33, ptr %39, align 4, !tbaa !4
  br label %94

.preheader:                                       ; preds = %.preheader49, %.preheader
  %34 = phi i32 [ %40, %.preheader ], [ %12, %.preheader49 ]
  %35 = phi i32 [ %49, %.preheader ], [ 396, %.preheader49 ]
  %.157 = phi ptr [ %39, %.preheader ], [ %11, %.preheader49 ]
  %36 = getelementptr inbounds i8, ptr %.157, i64 -908
  %37 = load i32, ptr %36, align 4, !tbaa !4
  %38 = and i32 %34, -2147483648
  %39 = getelementptr inbounds nuw i8, ptr %.157, i64 4
  %40 = load i32, ptr %39, align 4, !tbaa !4
  %41 = and i32 %40, 2147483646
  %42 = or disjoint i32 %41, %38
  %43 = lshr exact i32 %42, 1
  %44 = xor i32 %43, %37
  %45 = and i32 %40, 1
  %46 = icmp eq i32 %45, 0
  %47 = select i1 %46, i32 0, i32 -1727483681
  %48 = xor i32 %44, %47
  store i32 %48, ptr %.157, align 4, !tbaa !4
  %49 = add nsw i32 %35, -1
  %.not48 = icmp eq i32 %49, 0
  br i1 %.not48, label %21, label %.preheader

.preheader51:                                     ; preds = %1, %.preheader51
  %50 = phi i32 [ %56, %.preheader51 ], [ %.pre61, %1 ]
  %.04053 = phi i32 [ %51, %.preheader51 ], [ 227, %1 ]
  %.252 = phi ptr [ %55, %.preheader51 ], [ %2, %1 ]
  %51 = add nsw i32 %.04053, -1
  %52 = getelementptr inbounds nuw i8, ptr %.252, i64 1588
  %53 = load i32, ptr %52, align 4, !tbaa !4
  %54 = and i32 %50, -2147483648
  %55 = getelementptr inbounds nuw i8, ptr %.252, i64 4
  %56 = load i32, ptr %55, align 4, !tbaa !4
  %57 = and i32 %56, 2147483646
  %58 = or disjoint i32 %57, %54
  %59 = lshr exact i32 %58, 1
  %60 = and i32 %50, 1
  %61 = icmp eq i32 %60, 0
  %62 = select i1 %61, i32 0, i32 -1727483681
  %63 = xor i32 %62, %53
  %64 = xor i32 %63, %59
  store i32 %64, ptr %.252, align 4, !tbaa !4
  %.not = icmp eq i32 %51, 0
  br i1 %.not, label %.preheader50, label %.preheader51

65:                                               ; preds = %.preheader50
  %66 = getelementptr inbounds i8, ptr %.354, i64 -904
  %67 = load i32, ptr %66, align 4, !tbaa !4
  %68 = and i32 %84, -2147483648
  %69 = load i32, ptr %2, align 4, !tbaa !4
  %70 = and i32 %69, 2147483646
  %71 = or disjoint i32 %70, %68
  %72 = lshr exact i32 %71, 1
  %73 = and i32 %84, 1
  %74 = icmp eq i32 %73, 0
  %75 = select i1 %74, i32 0, i32 -1727483681
  %76 = xor i32 %75, %67
  %77 = xor i32 %76, %72
  store i32 %77, ptr %83, align 4, !tbaa !4
  br label %94

.preheader50:                                     ; preds = %.preheader51, %.preheader50
  %78 = phi i32 [ %84, %.preheader50 ], [ %56, %.preheader51 ]
  %79 = phi i32 [ %93, %.preheader50 ], [ 396, %.preheader51 ]
  %.354 = phi ptr [ %83, %.preheader50 ], [ %55, %.preheader51 ]
  %80 = getelementptr inbounds i8, ptr %.354, i64 -908
  %81 = load i32, ptr %80, align 4, !tbaa !4
  %82 = and i32 %78, -2147483648
  %83 = getelementptr inbounds nuw i8, ptr %.354, i64 4
  %84 = load i32, ptr %83, align 4, !tbaa !4
  %85 = and i32 %84, 2147483646
  %86 = or disjoint i32 %85, %82
  %87 = lshr exact i32 %86, 1
  %88 = and i32 %78, 1
  %89 = icmp eq i32 %88, 0
  %90 = select i1 %89, i32 0, i32 -1727483681
  %91 = xor i32 %90, %81
  %92 = xor i32 %91, %87
  store i32 %92, ptr %.354, align 4, !tbaa !4
  %93 = add nsw i32 %79, -1
  %.not46 = icmp eq i32 %93, 0
  br i1 %.not46, label %65, label %.preheader50

94:                                               ; preds = %65, %21
  store i32 0, ptr %0, align 4, !tbaa !8
  ret void
}